(dp0
(I0
I01
I01
tp1
I1
s(I3
I01
I00
tp2
I10
s(I2
I01
I00
tp3
I14
s(I2
I00
I00
tp4
I16
s(I1
I01
I00
tp5
I13
s(I1
I00
I00
tp6
I15
s(I2
I01
I01
tp7
I6
s(I0
I00
I01
tp8
I3
s(I1
I00
I01
tp9
I7
s(I3
I00
I00
tp10
I12
s(I0
I00
I00
tp11
I11
s(I2
I00
I01
tp12
I8
s(I3
I00
I01
tp13
I4
s(I3
I01
I01
tp14
I2
s(I0
I01
I00
tp15
I9
s(I1
I01
I01
tp16
I5
s.